; Function Attrs: nounwind uwtable
define internal void @uriDecorateFree(ptr noundef readonly captures(address_is_null) %0, ptr noundef %1) #1 {
  %3 = icmp eq ptr %1, null
  %4 = icmp eq ptr %0, null
  %or.cond = or i1 %4, %3
  br i1 %or.cond, label %13, label %5

5:                                                ; preds = %2
  %6 = getelementptr inbounds nuw i8, ptr %0, i64 40
  %7 = load ptr, ptr %6, align 8, !tbaa !14
  %8 = icmp eq ptr %7, null
  br i1 %8, label %13, label %9

9:                                                ; preds = %5
  %10 = getelementptr inbounds nuw i8, ptr %7, i64 32
  %11 = load ptr, ptr %10, align 8, !tbaa !11
  %12 = getelementptr inbounds i8, ptr %1, i64 -8
  tail call void %11(ptr noundef nonnull %7, ptr noundef nonnull %12) #15
  br label %13

13:                                               ; preds = %5, %2, %9
  ret void
}